target datalayout = "e-m:e-p270:32:32-p271:32:32-p272:64:64-i64:64-i128:128-f80:128-n8:16:32:64-S128"
target triple = "x86_64-pc-linux-gnu"

%"class.std::__shared_count" = type { ptr }
%"class.OpenColorIO_v2_5dev::FormatMetadataImpl" = type { %"class.OpenColorIO_v2_5dev::FormatMetadata", %"class.std::__cxx11::basic_string", %"class.std::__cxx11::basic_string", %"class.std::vector", %"class.std::vector.4" }
%"class.OpenColorIO_v2_5dev::FormatMetadata" = type { ptr }
%"class.std::__cxx11::basic_string" = type { %"struct.std::__cxx11::basic_string<char>::_Alloc_hider", i64, %union.anon.0 }
%"struct.std::__cxx11::basic_string<char>::_Alloc_hider" = type { ptr }
%union.anon.0 = type { i64, [8 x i8] }
%"class.std::vector" = type { %"struct.std::_Vector_base" }
%"struct.std::_Vector_base" = type { %"struct.std::_Vector_base<std::pair<std::__cxx11::basic_string<char>, std::__cxx11::basic_string<char>>, std::allocator<std::pair<std::__cxx11::basic_string<char>, std::__cxx11::basic_string<char>>>>::_Vector_impl" }
%"struct.std::_Vector_base<std::pair<std::__cxx11::basic_string<char>, std::__cxx11::basic_string<char>>, std::allocator<std::pair<std::__cxx11::basic_string<char>, std::__cxx11::basic_string<char>>>>::_Vector_impl" = type { %"struct.std::_Vector_base<std::pair<std::__cxx11::basic_string<char>, std::__cxx11::basic_string<char>>, std::allocator<std::pair<std::__cxx11::basic_string<char>, std::__cxx11::basic_string<char>>>>::_Vector_impl_data" }
%"struct.std::_Vector_base<std::pair<std::__cxx11::basic_string<char>, std::__cxx11::basic_string<char>>, std::allocator<std::pair<std::__cxx11::basic_string<char>, std::__cxx11::basic_string<char>>>>::_Vector_impl_data" = type { ptr, ptr, ptr }
%"class.std::vector.4" = type { %"struct.std::_Vector_base.5" }
%"struct.std::_Vector_base.5" = type { %"struct.std::_Vector_base<OpenColorIO_v2_5dev::FormatMetadataImpl, std::allocator<OpenColorIO_v2_5dev::FormatMetadataImpl>>::_Vector_impl" }
%"struct.std::_Vector_base<OpenColorIO_v2_5dev::FormatMetadataImpl, std::allocator<OpenColorIO_v2_5dev::FormatMetadataImpl>>::_Vector_impl" = type { %"struct.std::_Vector_base<OpenColorIO_v2_5dev::FormatMetadataImpl, std::allocator<OpenColorIO_v2_5dev::FormatMetadataImpl>>::_Vector_impl_data" }
%"struct.std::_Vector_base<OpenColorIO_v2_5dev::FormatMetadataImpl, std::allocator<OpenColorIO_v2_5dev::FormatMetadataImpl>>::_Vector_impl_data" = type { ptr, ptr, ptr }
%"class.std::shared_ptr.15" = type { %"class.std::__shared_ptr.16" }
%"class.std::__shared_ptr.16" = type { ptr, %"class.std::__shared_count" }
%"class.OpenColorIO_v2_5dev::OpRcPtrVec" = type { %"class.std::vector.18", %"class.OpenColorIO_v2_5dev::FormatMetadataImpl" }
%"class.std::vector.18" = type { %"struct.std::_Vector_base.19" }
%"struct.std::_Vector_base.19" = type { %"struct.std::_Vector_base<std::shared_ptr<OpenColorIO_v2_5dev::Op>, std::allocator<std::shared_ptr<OpenColorIO_v2_5dev::Op>>>::_Vector_impl" }
%"struct.std::_Vector_base<std::shared_ptr<OpenColorIO_v2_5dev::Op>, std::allocator<std::shared_ptr<OpenColorIO_v2_5dev::Op>>>::_Vector_impl" = type { %"struct.std::_Vector_base<std::shared_ptr<OpenColorIO_v2_5dev::Op>, std::allocator<std::shared_ptr<OpenColorIO_v2_5dev::Op>>>::_Vector_impl_data" }
%"struct.std::_Vector_base<std::shared_ptr<OpenColorIO_v2_5dev::Op>, std::allocator<std::shared_ptr<OpenColorIO_v2_5dev::Op>>>::_Vector_impl_data" = type { ptr, ptr, ptr }
%"class.__gnu_cxx::__normal_iterator.35" = type { ptr }
%"class.__gnu_cxx::__normal_iterator.34" = type { ptr }

; Function Attrs: inlinehint mustprogress nounwind uwtable
define linkonce_odr hidden void @_ZSt19__iterator_categoryIN9__gnu_cxx17__normal_iteratorIPKSt10shared_ptrIN19OpenColorIO_v2_5dev2OpEESt6vectorIS5_SaIS5_EEEEENSt15iterator_traitsIT_E17iterator_categoryERKSD_(ptr noundef nonnull align 8 dereferenceable(8) %0) #8 comdat {
  %2 = alloca ptr, align 8
  store ptr %0, ptr %2, align 8, !tbaa !78
  ret void
}

; Function Attrs: mustprogress nounwind uwtable
define linkonce_odr hidden void @_ZN9__gnu_cxx17__normal_iteratorIPSt10shared_ptrIN19OpenColorIO_v2_5dev2OpEESt6vectorIS4_SaIS4_EEEC2ERKS5_(ptr noundef nonnull align 8 dereferenceable(8) %0, ptr noundef nonnull align 8 dereferenceable(8) %1) unnamed_addr #4 comdat align 2 {
  %3 = alloca ptr, align 8
  %4 = alloca ptr, align 8
  store ptr %0, ptr %3, align 8, !tbaa !80
  store ptr %1, ptr %4, align 8, !tbaa !298
  %5 = load ptr, ptr %3, align 8
  %6 = getelementptr inbounds nuw %"class.__gnu_cxx::__normal_iterator.34", ptr %5, i32 0, i32 0
  %7 = load ptr, ptr %4, align 8, !tbaa !298
  %8 = load ptr, ptr %7, align 8, !tbaa !54
  store ptr %8, ptr %6, align 8, !tbaa !105
  ret void
}

; Function Attrs: mustprogress nounwind uwtable
define linkonce_odr hidden noundef nonnull align 8 dereferenceable(8) ptr @_ZNK9__gnu_cxx17__normal_iteratorIPKSt10shared_ptrIN19OpenColorIO_v2_5dev2OpEESt6vectorIS4_SaIS4_EEE4baseEv(ptr noundef nonnull align 8 dereferenceable(8) %0) #4 comdat align 2 {
  %2 = alloca ptr, align 8
  store ptr %0, ptr %2, align 8, !tbaa !78
  %3 = load ptr, ptr %2, align 8
  %4 = getelementptr inbounds nuw %"class.__gnu_cxx::__normal_iterator.35", ptr %3, i32 0, i32 0
  ret ptr %4
}

; Function Attrs: mustprogress nounwind uwtable
define linkonce_odr hidden void @_ZN9__gnu_cxx17__normal_iteratorIPKSt10shared_ptrIN19OpenColorIO_v2_5dev2OpEESt6vectorIS4_SaIS4_EEEC2ERKS6_(ptr noundef nonnull align 8 dereferenceable(8) %0, ptr noundef nonnull align 8 dereferenceable(8) %1) unnamed_addr #4 comdat align 2 {
  %3 = alloca ptr, align 8
  %4 = alloca ptr, align 8
  store ptr %0, ptr %3, align 8, !tbaa !78
  store ptr %1, ptr %4, align 8, !tbaa !298
  %5 = load ptr, ptr %3, align 8
  %6 = getelementptr inbounds nuw %"class.__gnu_cxx::__normal_iterator.35", ptr %5, i32 0, i32 0
  %7 = load ptr, ptr %4, align 8, !tbaa !298
  %8 = load ptr, ptr %7, align 8, !tbaa !54
  store ptr %8, ptr %6, align 8, !tbaa !82
  ret void
}

; Function Attrs: mustprogress uwtable
define linkonce_odr hidden void @_ZNSt6vectorISt10shared_ptrIN19OpenColorIO_v2_5dev2OpEESaIS3_EE18_M_insert_dispatchIN9__gnu_cxx17__normal_iteratorIPKS3_S5_EEEEvNS8_IPS3_S5_EET_SE_St12__false_type(ptr noundef nonnull align 8 dereferenceable(24) %0, ptr %1, ptr %2, ptr %3) #5 comdat align 2 {
  %5 = alloca %"class.__gnu_cxx::__normal_iterator.34", align 8
  %6 = alloca %"class.__gnu_cxx::__normal_iterator.35", align 8
  %7 = alloca %"class.__gnu_cxx::__normal_iterator.35", align 8
  %8 = alloca ptr, align 8
  %9 = alloca %"class.__gnu_cxx::__normal_iterator.34", align 8
  %10 = alloca %"class.__gnu_cxx::__normal_iterator.35", align 8
  %11 = alloca %"class.__gnu_cxx::__normal_iterator.35", align 8
  %12 = getelementptr inbounds nuw %"class.__gnu_cxx::__normal_iterator.34", ptr %5, i32 0, i32 0
  store ptr %1, ptr %12, align 8
  %13 = getelementptr inbounds nuw %"class.__gnu_cxx::__normal_iterator.35", ptr %6, i32 0, i32 0
  store ptr %2, ptr %13, align 8
  %14 = getelementptr inbounds nuw %"class.__gnu_cxx::__normal_iterator.35", ptr %7, i32 0, i32 0
  store ptr %3, ptr %14, align 8
  store ptr %0, ptr %8, align 8, !tbaa !71
  %15 = load ptr, ptr %8, align 8
  call void @llvm.memcpy.p0.p0.i64(ptr align 8 %9, ptr align 8 %5, i64 8, i1 false), !tbaa.struct !77
  call void @llvm.memcpy.p0.p0.i64(ptr align 8 %10, ptr align 8 %6, i64 8, i1 false), !tbaa.struct !77
  call void @llvm.memcpy.p0.p0.i64(ptr align 8 %11, ptr align 8 %7, i64 8, i1 false), !tbaa.struct !77
  call void @_ZSt19__iterator_categoryIN9__gnu_cxx17__normal_iteratorIPKSt10shared_ptrIN19OpenColorIO_v2_5dev2OpEESt6vectorIS5_SaIS5_EEEEENSt15iterator_traitsIT_E17iterator_categoryERKSD_(ptr noundef nonnull align 8 dereferenceable(8) %6)
  %16 = getelementptr inbounds nuw %"class.__gnu_cxx::__normal_iterator.34", ptr %9, i32 0, i32 0
  %17 = load ptr, ptr %16, align 8
  %18 = getelementptr inbounds nuw %"class.__gnu_cxx::__normal_iterator.35", ptr %10, i32 0, i32 0
  %19 = load ptr, ptr %18, align 8
  %20 = getelementptr inbounds nuw %"class.__gnu_cxx::__normal_iterator.35", ptr %11, i32 0, i32 0
  %21 = load ptr, ptr %20, align 8
  call void @_ZNSt6vectorISt10shared_ptrIN19OpenColorIO_v2_5dev2OpEESaIS3_EE15_M_range_insertIN9__gnu_cxx17__normal_iteratorIPKS3_S5_EEEEvNS8_IPS3_S5_EET_SE_St20forward_iterator_tag(ptr noundef nonnull align 8 dereferenceable(24) %15, ptr %17, ptr %19, ptr %21)
  ret void
}

; Function Attrs: mustprogress nounwind uwtable
define linkonce_odr hidden ptr @_ZNK9__gnu_cxx17__normal_iteratorIPSt10shared_ptrIN19OpenColorIO_v2_5dev2OpEESt6vectorIS4_SaIS4_EEEplEl(ptr noundef nonnull align 8 dereferenceable(8) %0, i64 noundef %1) #4 comdat align 2 {
  %3 = alloca %"class.__gnu_cxx::__normal_iterator.34", align 8
  %4 = alloca ptr, align 8
  %5 = alloca i64, align 8
  %6 = alloca ptr, align 8
  store ptr %0, ptr %4, align 8, !tbaa !80
  store i64 %1, ptr %5, align 8, !tbaa !52
  %7 = load ptr, ptr %4, align 8
  call void @llvm.lifetime.start.p0(i64 8, ptr %6) #3
  %8 = getelementptr inbounds nuw %"class.__gnu_cxx::__normal_iterator.34", ptr %7, i32 0, i32 0
  %9 = load ptr, ptr %8, align 8, !tbaa !105
  %10 = load i64, ptr %5, align 8, !tbaa !52
  %11 = getelementptr inbounds %"class.std::shared_ptr.15", ptr %9, i64 %10
  store ptr %11, ptr %6, align 8, !tbaa !54
  call void @_ZN9__gnu_cxx17__normal_iteratorIPSt10shared_ptrIN19OpenColorIO_v2_5dev2OpEESt6vectorIS4_SaIS4_EEEC2ERKS5_(ptr noundef nonnull align 8 dereferenceable(8) %3, ptr noundef nonnull align 8 dereferenceable(8) %6) #3
  call void @llvm.lifetime.end.p0(i64 8, ptr %6) #3
  %12 = getelementptr inbounds nuw %"class.__gnu_cxx::__normal_iterator.34", ptr %3, i32 0, i32 0
  %13 = load ptr, ptr %12, align 8
  ret ptr %13
}

; Function Attrs: mustprogress nounwind uwtable
define linkonce_odr hidden ptr @_ZNSt6vectorISt10shared_ptrIN19OpenColorIO_v2_5dev2OpEESaIS3_EE5beginEv(ptr noundef nonnull align 8 dereferenceable(24) %0) #4 comdat align 2 {
  %2 = alloca %"class.__gnu_cxx::__normal_iterator.34", align 8
  %3 = alloca ptr, align 8
  store ptr %0, ptr %3, align 8, !tbaa !71
  %4 = load ptr, ptr %3, align 8
  %5 = getelementptr inbounds nuw %"struct.std::_Vector_base.19", ptr %4, i32 0, i32 0
  %6 = getelementptr inbounds nuw %"struct.std::_Vector_base<std::shared_ptr<OpenColorIO_v2_5dev::Op>, std::allocator<std::shared_ptr<OpenColorIO_v2_5dev::Op>>>::_Vector_impl_data", ptr %5, i32 0, i32 0
  call void @_ZN9__gnu_cxx17__normal_iteratorIPSt10shared_ptrIN19OpenColorIO_v2_5dev2OpEESt6vectorIS4_SaIS4_EEEC2ERKS5_(ptr noundef nonnull align 8 dereferenceable(8) %2, ptr noundef nonnull align 8 dereferenceable(8) %6) #3
  %7 = getelementptr inbounds nuw %"class.__gnu_cxx::__normal_iterator.34", ptr %2, i32 0, i32 0
  %8 = load ptr, ptr %7, align 8
  ret ptr %8
}

; Function Attrs: inlinehint mustprogress nounwind uwtable
define linkonce_odr hidden noundef i64 @_ZN9__gnu_cxxmiIPKSt10shared_ptrIN19OpenColorIO_v2_5dev2OpEESt6vectorIS4_SaIS4_EEEENS_17__normal_iteratorIT_T0_E15difference_typeERKSD_SG_(ptr noundef nonnull align 8 dereferenceable(8) %0, ptr noundef nonnull align 8 dereferenceable(8) %1) #8 comdat {
  %3 = alloca ptr, align 8
  %4 = alloca ptr, align 8
  store ptr %0, ptr %3, align 8, !tbaa !78
  store ptr %1, ptr %4, align 8, !tbaa !78
  %5 = load ptr, ptr %3, align 8, !tbaa !78
  %6 = call noundef nonnull align 8 dereferenceable(8) ptr @_ZNK9__gnu_cxx17__normal_iteratorIPKSt10shared_ptrIN19OpenColorIO_v2_5dev2OpEESt6vectorIS4_SaIS4_EEE4baseEv(ptr noundef nonnull align 8 dereferenceable(8) %5) #3
  %7 = load ptr, ptr %6, align 8, !tbaa !54
  %8 = load ptr, ptr %4, align 8, !tbaa !78
  %9 = call noundef nonnull align 8 dereferenceable(8) ptr @_ZNK9__gnu_cxx17__normal_iteratorIPKSt10shared_ptrIN19OpenColorIO_v2_5dev2OpEESt6vectorIS4_SaIS4_EEE4baseEv(ptr noundef nonnull align 8 dereferenceable(8) %8) #3
  %10 = load ptr, ptr %9, align 8, !tbaa !54
  %11 = ptrtoint ptr %7 to i64
  %12 = ptrtoint ptr %10 to i64
  %13 = sub i64 %11, %12
  %14 = sdiv exact i64 %13, 16
  ret i64 %14
}

; Function Attrs: mustprogress nounwind uwtable
define linkonce_odr hidden ptr @_ZNKSt6vectorISt10shared_ptrIN19OpenColorIO_v2_5dev2OpEESaIS3_EE6cbeginEv(ptr noundef nonnull align 8 dereferenceable(24) %0) #4 comdat align 2 {
  %2 = alloca %"class.__gnu_cxx::__normal_iterator.35", align 8
  %3 = alloca ptr, align 8
  store ptr %0, ptr %3, align 8, !tbaa !71
  %4 = load ptr, ptr %3, align 8
  %5 = getelementptr inbounds nuw %"struct.std::_Vector_base.19", ptr %4, i32 0, i32 0
  %6 = getelementptr inbounds nuw %"struct.std::_Vector_base<std::shared_ptr<OpenColorIO_v2_5dev::Op>, std::allocator<std::shared_ptr<OpenColorIO_v2_5dev::Op>>>::_Vector_impl_data", ptr %5, i32 0, i32 0
  call void @_ZN9__gnu_cxx17__normal_iteratorIPKSt10shared_ptrIN19OpenColorIO_v2_5dev2OpEESt6vectorIS4_SaIS4_EEEC2ERKS6_(ptr noundef nonnull align 8 dereferenceable(8) %2, ptr noundef nonnull align 8 dereferenceable(8) %6) #3
  %7 = getelementptr inbounds nuw %"class.__gnu_cxx::__normal_iterator.35", ptr %2, i32 0, i32 0
  %8 = load ptr, ptr %7, align 8
  ret ptr %8
}

; Function Attrs: mustprogress uwtable
define linkonce_odr hidden ptr @_ZNSt6vectorISt10shared_ptrIN19OpenColorIO_v2_5dev2OpEESaIS3_EE6insertIN9__gnu_cxx17__normal_iteratorIPKS3_S5_EEvEENS8_IPS3_S5_EESB_T_SE_(ptr noundef nonnull align 8 dereferenceable(24) %0, ptr %1, ptr %2, ptr %3) #5 comdat align 2 {
  %5 = alloca %"class.__gnu_cxx::__normal_iterator.34", align 8
  %6 = alloca %"class.__gnu_cxx::__normal_iterator.35", align 8
  %7 = alloca %"class.__gnu_cxx::__normal_iterator.35", align 8
  %8 = alloca %"class.__gnu_cxx::__normal_iterator.35", align 8
  %9 = alloca ptr, align 8
  %10 = alloca i64, align 8
  %11 = alloca %"class.__gnu_cxx::__normal_iterator.35", align 8
  %12 = alloca %"class.__gnu_cxx::__normal_iterator.34", align 8
  %13 = alloca %"class.__gnu_cxx::__normal_iterator.34", align 8
  %14 = alloca %"class.__gnu_cxx::__normal_iterator.35", align 8
  %15 = alloca %"class.__gnu_cxx::__normal_iterator.35", align 8
  %16 = alloca %"class.__gnu_cxx::__normal_iterator.34", align 8
  %17 = getelementptr inbounds nuw %"class.__gnu_cxx::__normal_iterator.35", ptr %6, i32 0, i32 0
  store ptr %1, ptr %17, align 8
  %18 = getelementptr inbounds nuw %"class.__gnu_cxx::__normal_iterator.35", ptr %7, i32 0, i32 0
  store ptr %2, ptr %18, align 8
  %19 = getelementptr inbounds nuw %"class.__gnu_cxx::__normal_iterator.35", ptr %8, i32 0, i32 0
  store ptr %3, ptr %19, align 8
  store ptr %0, ptr %9, align 8, !tbaa !71
  %20 = load ptr, ptr %9, align 8
  call void @llvm.lifetime.start.p0(i64 8, ptr %10) #3
  call void @llvm.lifetime.start.p0(i64 8, ptr %11) #3
  %21 = call ptr @_ZNKSt6vectorISt10shared_ptrIN19OpenColorIO_v2_5dev2OpEESaIS3_EE6cbeginEv(ptr noundef nonnull align 8 dereferenceable(24) %20) #3
  %22 = getelementptr inbounds nuw %"class.__gnu_cxx::__normal_iterator.35", ptr %11, i32 0, i32 0
  store ptr %21, ptr %22, align 8
  %23 = call noundef i64 @_ZN9__gnu_cxxmiIPKSt10shared_ptrIN19OpenColorIO_v2_5dev2OpEESt6vectorIS4_SaIS4_EEEENS_17__normal_iteratorIT_T0_E15difference_typeERKSD_SG_(ptr noundef nonnull align 8 dereferenceable(8) %6, ptr noundef nonnull align 8 dereferenceable(8) %11) #3
  call void @llvm.lifetime.end.p0(i64 8, ptr %11) #3
  store i64 %23, ptr %10, align 8, !tbaa !52
  call void @llvm.lifetime.start.p0(i64 8, ptr %13) #3
  %24 = call ptr @_ZNSt6vectorISt10shared_ptrIN19OpenColorIO_v2_5dev2OpEESaIS3_EE5beginEv(ptr noundef nonnull align 8 dereferenceable(24) %20) #3
  %25 = getelementptr inbounds nuw %"class.__gnu_cxx::__normal_iterator.34", ptr %13, i32 0, i32 0
  store ptr %24, ptr %25, align 8
  %26 = load i64, ptr %10, align 8, !tbaa !52
  %27 = call ptr @_ZNK9__gnu_cxx17__normal_iteratorIPSt10shared_ptrIN19OpenColorIO_v2_5dev2OpEESt6vectorIS4_SaIS4_EEEplEl(ptr noundef nonnull align 8 dereferenceable(8) %13, i64 noundef %26) #3
  %28 = getelementptr inbounds nuw %"class.__gnu_cxx::__normal_iterator.34", ptr %12, i32 0, i32 0
  store ptr %27, ptr %28, align 8
  call void @llvm.memcpy.p0.p0.i64(ptr align 8 %14, ptr align 8 %7, i64 8, i1 false), !tbaa.struct !77
  call void @llvm.memcpy.p0.p0.i64(ptr align 8 %15, ptr align 8 %8, i64 8, i1 false), !tbaa.struct !77
  %29 = getelementptr inbounds nuw %"class.__gnu_cxx::__normal_iterator.34", ptr %12, i32 0, i32 0
  %30 = load ptr, ptr %29, align 8
  %31 = getelementptr inbounds nuw %"class.__gnu_cxx::__normal_iterator.35", ptr %14, i32 0, i32 0
  %32 = load ptr, ptr %31, align 8
  %33 = getelementptr inbounds nuw %"class.__gnu_cxx::__normal_iterator.35", ptr %15, i32 0, i32 0
  %34 = load ptr, ptr %33, align 8
  call void @_ZNSt6vectorISt10shared_ptrIN19OpenColorIO_v2_5dev2OpEESaIS3_EE18_M_insert_dispatchIN9__gnu_cxx17__normal_iteratorIPKS3_S5_EEEEvNS8_IPS3_S5_EET_SE_St12__false_type(ptr noundef nonnull align 8 dereferenceable(24) %20, ptr %30, ptr %32, ptr %34)
  call void @llvm.lifetime.end.p0(i64 8, ptr %13) #3
  call void @llvm.lifetime.start.p0(i64 8, ptr %16) #3
  %35 = call ptr @_ZNSt6vectorISt10shared_ptrIN19OpenColorIO_v2_5dev2OpEESaIS3_EE5beginEv(ptr noundef nonnull align 8 dereferenceable(24) %20) #3
  %36 = getelementptr inbounds nuw %"class.__gnu_cxx::__normal_iterator.34", ptr %16, i32 0, i32 0
  store ptr %35, ptr %36, align 8
  %37 = load i64, ptr %10, align 8, !tbaa !52
  %38 = call ptr @_ZNK9__gnu_cxx17__normal_iteratorIPSt10shared_ptrIN19OpenColorIO_v2_5dev2OpEESt6vectorIS4_SaIS4_EEEplEl(ptr noundef nonnull align 8 dereferenceable(8) %16, i64 noundef %37) #3
  %39 = getelementptr inbounds nuw %"class.__gnu_cxx::__normal_iterator.34", ptr %5, i32 0, i32 0
  store ptr %38, ptr %39, align 8
  call void @llvm.lifetime.end.p0(i64 8, ptr %16) #3
  call void @llvm.lifetime.end.p0(i64 8, ptr %10) #3
  %40 = getelementptr inbounds nuw %"class.__gnu_cxx::__normal_iterator.34", ptr %5, i32 0, i32 0
  %41 = load ptr, ptr %40, align 8
  ret ptr %41
}

; Function Attrs: mustprogress uwtable
define hidden void @_ZN19OpenColorIO_v2_5dev10OpRcPtrVec6insertEN9__gnu_cxx17__normal_iteratorIPKSt10shared_ptrINS_2OpEESt6vectorIS5_SaIS5_EEEESB_SB_(ptr noundef nonnull align 8 dereferenceable(144) %0, ptr %1, ptr %2, ptr %3) #5 align 2 {
  %5 = alloca %"class.__gnu_cxx::__normal_iterator.35", align 8
  %6 = alloca %"class.__gnu_cxx::__normal_iterator.35", align 8
  %7 = alloca %"class.__gnu_cxx::__normal_iterator.35", align 8
  %8 = alloca ptr, align 8
  %9 = alloca %"class.__gnu_cxx::__normal_iterator.35", align 8
  %10 = alloca %"class.__gnu_cxx::__normal_iterator.35", align 8
  %11 = alloca %"class.__gnu_cxx::__normal_iterator.35", align 8
  %12 = alloca %"class.__gnu_cxx::__normal_iterator.34", align 8
  %13 = getelementptr inbounds nuw %"class.__gnu_cxx::__normal_iterator.35", ptr %5, i32 0, i32 0
  store ptr %1, ptr %13, align 8
  %14 = getelementptr inbounds nuw %"class.__gnu_cxx::__normal_iterator.35", ptr %6, i32 0, i32 0
  store ptr %2, ptr %14, align 8
  %15 = getelementptr inbounds nuw %"class.__gnu_cxx::__normal_iterator.35", ptr %7, i32 0, i32 0
  store ptr %3, ptr %15, align 8
  store ptr %0, ptr %8, align 8, !tbaa !36
  %16 = load ptr, ptr %8, align 8
  %17 = getelementptr inbounds nuw %"class.OpenColorIO_v2_5dev::OpRcPtrVec", ptr %16, i32 0, i32 0
  call void @llvm.memcpy.p0.p0.i64(ptr align 8 %9, ptr align 8 %5, i64 8, i1 false), !tbaa.struct !77
  call void @llvm.memcpy.p0.p0.i64(ptr align 8 %10, ptr align 8 %6, i64 8, i1 false), !tbaa.struct !77
  call void @llvm.memcpy.p0.p0.i64(ptr align 8 %11, ptr align 8 %7, i64 8, i1 false), !tbaa.struct !77
  %18 = getelementptr inbounds nuw %"class.__gnu_cxx::__normal_iterator.35", ptr %9, i32 0, i32 0
  %19 = load ptr, ptr %18, align 8
  %20 = getelementptr inbounds nuw %"class.__gnu_cxx::__normal_iterator.35", ptr %10, i32 0, i32 0
  %21 = load ptr, ptr %20, align 8
  %22 = getelementptr inbounds nuw %"class.__gnu_cxx::__normal_iterator.35", ptr %11, i32 0, i32 0
  %23 = load ptr, ptr %22, align 8
  %24 = call ptr @_ZNSt6vectorISt10shared_ptrIN19OpenColorIO_v2_5dev2OpEESaIS3_EE6insertIN9__gnu_cxx17__normal_iteratorIPKS3_S5_EEvEENS8_IPS3_S5_EESB_T_SE_(ptr noundef nonnull align 8 dereferenceable(24) %17, ptr %19, ptr %21, ptr %23)
  %25 = getelementptr inbounds nuw %"class.__gnu_cxx::__normal_iterator.34", ptr %12, i32 0, i32 0
  store ptr %24, ptr %25, align 8
  ret void
}