; Function Attrs: mustprogress uwtable
define hidden void @_ZN19OpenColorIO_v2_5dev10OpRcPtrVec6insertEN9__gnu_cxx17__normal_iteratorIPKSt10shared_ptrINS_2OpEESt6vectorIS5_SaIS5_EEEESB_SB_(ptr noundef nonnull align 8 dereferenceable(144) %0, ptr %1, ptr %2, ptr %3) local_unnamed_addr #6 align 2 {
  %5 = load ptr, ptr %0, align 8, !tbaa !202
  %6 = ptrtoint ptr %1 to i64
  %7 = ptrtoint ptr %5 to i64
  %8 = sub i64 %6, %7
  %9 = getelementptr inbounds i8, ptr %5, i64 %8
  tail call void @_ZNSt6vectorISt10shared_ptrIN19OpenColorIO_v2_5dev2OpEESaIS3_EE15_M_range_insertIN9__gnu_cxx17__normal_iteratorIPKS3_S5_EEEEvNS8_IPS3_S5_EET_SE_St20forward_iterator_tag(ptr noundef nonnull align 8 dereferenceable(24) %0, ptr %9, ptr %2, ptr %3)
  ret void
}